target datalayout = "e-m:e-p270:32:32-p271:32:32-p272:64:64-i64:64-i128:128-f80:128-n8:16:32:64-S128"
target triple = "x86_64-pc-linux-gnu"

%"class.net::StreamBufferDeleter" = type { ptr }
%"class.std::unique_ptr" = type { %"struct.std::__uniq_ptr_data" }
%"struct.std::__uniq_ptr_data" = type { %"class.std::__uniq_ptr_impl" }
%"class.std::__uniq_ptr_impl" = type { %"class.std::tuple" }
%"class.std::tuple" = type { %"struct.std::_Tuple_impl" }
%"struct.std::_Tuple_impl" = type { %"struct.std::_Tuple_impl.5", %"struct.std::_Head_base.6" }
%"struct.std::_Tuple_impl.5" = type { %"struct.std::_Head_base" }
%"struct.std::_Head_base" = type { %"class.net::StreamBufferDeleter" }
%"struct.std::_Head_base.6" = type { ptr }
%"struct.net::QuicStreamFrame" = type { i32, i8, i16, ptr, i64, %"class.std::unique_ptr" }

; Function Attrs: mustprogress nounwind uwtable
define linkonce_odr noundef nonnull align 8 dereferenceable(8) ptr @_ZNSt10_Head_baseILm0EPcLb0EE7_M_headERS1_(ptr noundef nonnull align 8 dereferenceable(8) %0) #1 comdat align 2 {
  %2 = alloca ptr, align 8
  store ptr %0, ptr %2, align 8, !tbaa !366
  %3 = load ptr, ptr %2, align 8, !tbaa !366
  %4 = getelementptr inbounds nuw %"struct.std::_Head_base.6", ptr %3, i32 0, i32 0
  ret ptr %4
}

; Function Attrs: mustprogress nounwind uwtable
define linkonce_odr noundef nonnull align 8 dereferenceable(8) ptr @_ZNSt11_Tuple_implILm0EJPcN3net19StreamBufferDeleterEEE7_M_headERS3_(ptr noundef nonnull align 8 dereferenceable(16) %0) #1 comdat align 2 {
  %2 = alloca ptr, align 8
  store ptr %0, ptr %2, align 8, !tbaa !362
  %3 = load ptr, ptr %2, align 8, !tbaa !362
  %4 = getelementptr inbounds i8, ptr %3, i64 8
  %5 = call noundef nonnull align 8 dereferenceable(8) ptr @_ZNSt10_Head_baseILm0EPcLb0EE7_M_headERS1_(ptr noundef nonnull align 8 dereferenceable(8) %4) #18
  ret ptr %5
}

; Function Attrs: mustprogress nounwind uwtable
define linkonce_odr noundef nonnull align 8 dereferenceable(8) ptr @_ZNSt10_Head_baseILm0EPcLb0EE7_M_headERKS1_(ptr noundef nonnull align 8 dereferenceable(8) %0) #1 comdat align 2 {
  %2 = alloca ptr, align 8
  store ptr %0, ptr %2, align 8, !tbaa !366
  %3 = load ptr, ptr %2, align 8, !tbaa !366
  %4 = getelementptr inbounds nuw %"struct.std::_Head_base.6", ptr %3, i32 0, i32 0
  ret ptr %4
}

; Function Attrs: mustprogress nounwind uwtable
define linkonce_odr noundef nonnull align 8 dereferenceable(8) ptr @_ZSt12__get_helperILm0EPcJN3net19StreamBufferDeleterEEERT0_RSt11_Tuple_implIXT_EJS3_DpT1_EE(ptr noundef nonnull align 8 dereferenceable(16) %0) #1 comdat {
  %2 = alloca ptr, align 8
  store ptr %0, ptr %2, align 8, !tbaa !362
  %3 = load ptr, ptr %2, align 8, !tbaa !362
  %4 = call noundef nonnull align 8 dereferenceable(8) ptr @_ZNSt11_Tuple_implILm0EJPcN3net19StreamBufferDeleterEEE7_M_headERS3_(ptr noundef nonnull align 8 dereferenceable(16) %3) #18
  ret ptr %4
}

; Function Attrs: mustprogress nounwind uwtable
define linkonce_odr void @_ZNSt11_Tuple_implILm1EJN3net19StreamBufferDeleterEEEC2EOS2_(ptr noundef nonnull align 8 dereferenceable(8) %0, ptr noundef nonnull align 8 dereferenceable(8) %1) unnamed_addr #1 comdat align 2 {
  %3 = alloca ptr, align 8
  %4 = alloca ptr, align 8
  store ptr %0, ptr %3, align 8, !tbaa !364
  store ptr %1, ptr %4, align 8, !tbaa !364
  %5 = load ptr, ptr %3, align 8
  %6 = load ptr, ptr %4, align 8, !tbaa !364
  call void @llvm.memcpy.p0.p0.i64(ptr align 8 %5, ptr align 8 %6, i64 8, i1 false), !tbaa.struct !372
  ret void
}

; Function Attrs: mustprogress nounwind uwtable
define linkonce_odr noundef nonnull align 8 dereferenceable(8) ptr @_ZNSt11_Tuple_implILm0EJPcN3net19StreamBufferDeleterEEE7_M_headERKS3_(ptr noundef nonnull align 8 dereferenceable(16) %0) #1 comdat align 2 {
  %2 = alloca ptr, align 8
  store ptr %0, ptr %2, align 8, !tbaa !362
  %3 = load ptr, ptr %2, align 8, !tbaa !362
  %4 = getelementptr inbounds i8, ptr %3, i64 8
  %5 = call noundef nonnull align 8 dereferenceable(8) ptr @_ZNSt10_Head_baseILm0EPcLb0EE7_M_headERKS1_(ptr noundef nonnull align 8 dereferenceable(8) %4) #18
  ret ptr %5
}

; Function Attrs: mustprogress nounwind uwtable
define linkonce_odr noundef nonnull align 8 dereferenceable(8) ptr @_ZSt3getILm0EJPcN3net19StreamBufferDeleterEEERNSt13tuple_elementIXT_ESt5tupleIJDpT0_EEE4typeERS7_(ptr noundef nonnull align 8 dereferenceable(16) %0) #1 comdat {
  %2 = alloca ptr, align 8
  store ptr %0, ptr %2, align 8, !tbaa !360
  %3 = load ptr, ptr %2, align 8, !tbaa !360
  %4 = call noundef nonnull align 8 dereferenceable(8) ptr @_ZSt12__get_helperILm0EPcJN3net19StreamBufferDeleterEEERT0_RSt11_Tuple_implIXT_EJS3_DpT1_EE(ptr noundef nonnull align 8 dereferenceable(16) %3) #18
  ret ptr %4
}

; Function Attrs: mustprogress nounwind uwtable
define linkonce_odr void @_ZNSt11_Tuple_implILm0EJPcN3net19StreamBufferDeleterEEEC2EOS3_(ptr noundef nonnull align 8 dereferenceable(16) %0, ptr noundef nonnull align 8 dereferenceable(16) %1) unnamed_addr #1 comdat align 2 {
  %3 = alloca ptr, align 8
  %4 = alloca ptr, align 8
  store ptr %0, ptr %3, align 8, !tbaa !362
  store ptr %1, ptr %4, align 8, !tbaa !362
  %5 = load ptr, ptr %3, align 8
  %6 = load ptr, ptr %4, align 8, !tbaa !362
  call void @_ZNSt11_Tuple_implILm1EJN3net19StreamBufferDeleterEEEC2EOS2_(ptr noundef nonnull align 8 dereferenceable(8) %5, ptr noundef nonnull align 8 dereferenceable(8) %6) #18
  %7 = getelementptr inbounds i8, ptr %5, i64 8
  %8 = load ptr, ptr %4, align 8, !tbaa !362
  %9 = getelementptr inbounds i8, ptr %8, i64 8
  call void @llvm.memcpy.p0.p0.i64(ptr align 8 %7, ptr align 8 %9, i64 8, i1 false), !tbaa.struct !371
  ret void
}

; Function Attrs: mustprogress nounwind uwtable
define linkonce_odr noundef nonnull align 8 dereferenceable(8) ptr @_ZSt12__get_helperILm0EPcJN3net19StreamBufferDeleterEEERKT0_RKSt11_Tuple_implIXT_EJS3_DpT1_EE(ptr noundef nonnull align 8 dereferenceable(16) %0) #1 comdat {
  %2 = alloca ptr, align 8
  store ptr %0, ptr %2, align 8, !tbaa !362
  %3 = load ptr, ptr %2, align 8, !tbaa !362
  %4 = call noundef nonnull align 8 dereferenceable(8) ptr @_ZNSt11_Tuple_implILm0EJPcN3net19StreamBufferDeleterEEE7_M_headERKS3_(ptr noundef nonnull align 8 dereferenceable(16) %3) #18
  ret ptr %4
}

; Function Attrs: mustprogress nounwind uwtable
define linkonce_odr noundef nonnull align 8 dereferenceable(8) ptr @_ZNSt15__uniq_ptr_implIcN3net19StreamBufferDeleterEE6_M_ptrEv(ptr noundef nonnull align 8 dereferenceable(16) %0) #1 comdat align 2 {
  %2 = alloca ptr, align 8
  store ptr %0, ptr %2, align 8, !tbaa !358
  %3 = load ptr, ptr %2, align 8
  %4 = getelementptr inbounds nuw %"class.std::__uniq_ptr_impl", ptr %3, i32 0, i32 0
  %5 = call noundef nonnull align 8 dereferenceable(8) ptr @_ZSt3getILm0EJPcN3net19StreamBufferDeleterEEERNSt13tuple_elementIXT_ESt5tupleIJDpT0_EEE4typeERS7_(ptr noundef nonnull align 8 dereferenceable(16) %4) #18
  ret ptr %5
}

; Function Attrs: mustprogress nounwind uwtable
define linkonce_odr void @_ZNSt5tupleIJPcN3net19StreamBufferDeleterEEEC2EOS3_(ptr noundef nonnull align 8 dereferenceable(16) %0, ptr noundef nonnull align 8 dereferenceable(16) %1) unnamed_addr #1 comdat align 2 {
  %3 = alloca ptr, align 8
  %4 = alloca ptr, align 8
  store ptr %0, ptr %3, align 8, !tbaa !360
  store ptr %1, ptr %4, align 8, !tbaa !360
  %5 = load ptr, ptr %3, align 8
  %6 = load ptr, ptr %4, align 8, !tbaa !360
  call void @_ZNSt11_Tuple_implILm0EJPcN3net19StreamBufferDeleterEEEC2EOS3_(ptr noundef nonnull align 8 dereferenceable(16) %5, ptr noundef nonnull align 8 dereferenceable(16) %6) #18
  ret void
}

; Function Attrs: mustprogress nounwind uwtable
define linkonce_odr noundef nonnull align 8 dereferenceable(8) ptr @_ZSt3getILm0EJPcN3net19StreamBufferDeleterEEERKNSt13tuple_elementIXT_ESt5tupleIJDpT0_EEE4typeERKS7_(ptr noundef nonnull align 8 dereferenceable(16) %0) #1 comdat {
  %2 = alloca ptr, align 8
  store ptr %0, ptr %2, align 8, !tbaa !360
  %3 = load ptr, ptr %2, align 8, !tbaa !360
  %4 = call noundef nonnull align 8 dereferenceable(8) ptr @_ZSt12__get_helperILm0EPcJN3net19StreamBufferDeleterEEERKT0_RKSt11_Tuple_implIXT_EJS3_DpT1_EE(ptr noundef nonnull align 8 dereferenceable(16) %3) #18
  ret ptr %4
}

; Function Attrs: mustprogress nounwind uwtable
define linkonce_odr void @_ZNSt15__uniq_ptr_implIcN3net19StreamBufferDeleterEEC2EOS2_(ptr noundef nonnull align 8 dereferenceable(16) %0, ptr noundef nonnull align 8 dereferenceable(16) %1) unnamed_addr #1 comdat align 2 {
  %3 = alloca ptr, align 8
  %4 = alloca ptr, align 8
  store ptr %0, ptr %3, align 8, !tbaa !358
  store ptr %1, ptr %4, align 8, !tbaa !358
  %5 = load ptr, ptr %3, align 8
  %6 = getelementptr inbounds nuw %"class.std::__uniq_ptr_impl", ptr %5, i32 0, i32 0
  %7 = load ptr, ptr %4, align 8, !tbaa !358
  %8 = getelementptr inbounds nuw %"class.std::__uniq_ptr_impl", ptr %7, i32 0, i32 0
  call void @_ZNSt5tupleIJPcN3net19StreamBufferDeleterEEEC2EOS3_(ptr noundef nonnull align 8 dereferenceable(16) %6, ptr noundef nonnull align 8 dereferenceable(16) %8) #18
  %9 = load ptr, ptr %4, align 8, !tbaa !358
  %10 = call noundef nonnull align 8 dereferenceable(8) ptr @_ZNSt15__uniq_ptr_implIcN3net19StreamBufferDeleterEE6_M_ptrEv(ptr noundef nonnull align 8 dereferenceable(16) %9) #18
  store ptr null, ptr %10, align 8, !tbaa !66
  ret void
}

; Function Attrs: mustprogress nounwind uwtable
define linkonce_odr noundef ptr @_ZNKSt15__uniq_ptr_implIcN3net19StreamBufferDeleterEE6_M_ptrEv(ptr noundef nonnull align 8 dereferenceable(16) %0) #1 comdat align 2 {
  %2 = alloca ptr, align 8
  store ptr %0, ptr %2, align 8, !tbaa !358
  %3 = load ptr, ptr %2, align 8
  %4 = getelementptr inbounds nuw %"class.std::__uniq_ptr_impl", ptr %3, i32 0, i32 0
  %5 = call noundef nonnull align 8 dereferenceable(8) ptr @_ZSt3getILm0EJPcN3net19StreamBufferDeleterEEERKNSt13tuple_elementIXT_ESt5tupleIJDpT0_EEE4typeERKS7_(ptr noundef nonnull align 8 dereferenceable(16) %4) #18
  %6 = load ptr, ptr %5, align 8, !tbaa !66
  ret ptr %6
}

; Function Attrs: mustprogress nounwind uwtable
define linkonce_odr noundef zeroext i1 @_ZNKSt10unique_ptrIA_cN3net19StreamBufferDeleterEEcvbEv(ptr noundef nonnull align 8 dereferenceable(16) %0) #1 comdat align 2 {
  %2 = alloca ptr, align 8
  store ptr %0, ptr %2, align 8, !tbaa !72
  %3 = load ptr, ptr %2, align 8
  %4 = call noundef ptr @_ZNKSt10unique_ptrIA_cN3net19StreamBufferDeleterEE3getEv(ptr noundef nonnull align 8 dereferenceable(16) %3) #18
  %5 = icmp eq ptr %4, null
  %6 = select i1 %5, i1 false, i1 true
  ret i1 %6
}

; Function Attrs: mustprogress nounwind uwtable
define linkonce_odr void @_ZNSt15__uniq_ptr_dataIcN3net19StreamBufferDeleterELb1ELb1EEC2EOS2_(ptr noundef nonnull align 8 dereferenceable(16) %0, ptr noundef nonnull align 8 dereferenceable(16) %1) unnamed_addr #1 comdat align 2 {
  %3 = alloca ptr, align 8
  %4 = alloca ptr, align 8
  store ptr %0, ptr %3, align 8, !tbaa !356
  store ptr %1, ptr %4, align 8, !tbaa !356
  %5 = load ptr, ptr %3, align 8
  %6 = load ptr, ptr %4, align 8, !tbaa !356
  call void @_ZNSt15__uniq_ptr_implIcN3net19StreamBufferDeleterEEC2EOS2_(ptr noundef nonnull align 8 dereferenceable(16) %5, ptr noundef nonnull align 8 dereferenceable(16) %6) #18
  ret void
}

; Function Attrs: mustprogress nounwind uwtable
define linkonce_odr noundef ptr @_ZNKSt10unique_ptrIA_cN3net19StreamBufferDeleterEE3getEv(ptr noundef nonnull align 8 dereferenceable(16) %0) #1 comdat align 2 {
  %2 = alloca ptr, align 8
  store ptr %0, ptr %2, align 8, !tbaa !72
  %3 = load ptr, ptr %2, align 8
  %4 = getelementptr inbounds nuw %"class.std::unique_ptr", ptr %3, i32 0, i32 0
  %5 = call noundef ptr @_ZNKSt15__uniq_ptr_implIcN3net19StreamBufferDeleterEE6_M_ptrEv(ptr noundef nonnull align 8 dereferenceable(16) %4) #18
  ret ptr %5
}

; Function Attrs: inlinehint mustprogress nounwind uwtable
define linkonce_odr noundef zeroext i1 @_ZStneIA_cN3net19StreamBufferDeleterEEbRKSt10unique_ptrIT_T0_EDn(ptr noundef nonnull align 8 dereferenceable(16) %0, ptr %1) #7 comdat {
  %3 = alloca ptr, align 8
  %4 = alloca ptr, align 8
  store ptr %0, ptr %3, align 8, !tbaa !72
  store ptr %1, ptr %4, align 8, !tbaa !76
  %5 = load ptr, ptr %3, align 8, !tbaa !72
  %6 = call noundef zeroext i1 @_ZNKSt10unique_ptrIA_cN3net19StreamBufferDeleterEEcvbEv(ptr noundef nonnull align 8 dereferenceable(16) %5) #18
  ret i1 %6
}

; Function Attrs: mustprogress nounwind uwtable
define linkonce_odr void @_ZNSt10unique_ptrIA_cN3net19StreamBufferDeleterEEC2EOS3_(ptr noundef nonnull align 8 dereferenceable(16) %0, ptr noundef nonnull align 8 dereferenceable(16) %1) unnamed_addr #1 comdat align 2 {
  %3 = alloca ptr, align 8
  %4 = alloca ptr, align 8
  store ptr %0, ptr %3, align 8, !tbaa !72
  store ptr %1, ptr %4, align 8, !tbaa !72
  %5 = load ptr, ptr %3, align 8
  %6 = getelementptr inbounds nuw %"class.std::unique_ptr", ptr %5, i32 0, i32 0
  %7 = load ptr, ptr %4, align 8, !tbaa !72
  %8 = getelementptr inbounds nuw %"class.std::unique_ptr", ptr %7, i32 0, i32 0
  call void @_ZNSt15__uniq_ptr_dataIcN3net19StreamBufferDeleterELb1ELb1EEC2EOS2_(ptr noundef nonnull align 8 dereferenceable(16) %6, ptr noundef nonnull align 8 dereferenceable(16) %8) #18
  ret void
}

; Function Attrs: mustprogress nounwind uwtable
define void @_ZN3net15QuicStreamFrameC2EjbmPKctSt10unique_ptrIA_cNS_19StreamBufferDeleterEE(ptr noundef nonnull align 8 dereferenceable(40) %0, i32 noundef %1, i1 noundef zeroext %2, i64 noundef %3, ptr noundef %4, i16 noundef zeroext %5, ptr noundef %6) unnamed_addr #1 align 2 {
  %8 = alloca ptr, align 8
  %9 = alloca i32, align 4
  %10 = alloca i8, align 1
  %11 = alloca i64, align 8
  %12 = alloca ptr, align 8
  %13 = alloca i16, align 2
  %14 = alloca ptr, align 8
  store ptr %0, ptr %8, align 8, !tbaa !74
  store i32 %1, ptr %9, align 4, !tbaa !78
  %15 = zext i1 %2 to i8
  store i8 %15, ptr %10, align 1, !tbaa !29
  store i64 %3, ptr %11, align 8, !tbaa !71
  store ptr %4, ptr %12, align 8, !tbaa !66
  store i16 %5, ptr %13, align 2, !tbaa !80
  store ptr %6, ptr %14, align 8, !tbaa !72
  %16 = load ptr, ptr %8, align 8
  %17 = getelementptr inbounds nuw %"struct.net::QuicStreamFrame", ptr %16, i32 0, i32 0
  %18 = load i32, ptr %9, align 4, !tbaa !78
  store i32 %18, ptr %17, align 8, !tbaa !81
  %19 = getelementptr inbounds nuw %"struct.net::QuicStreamFrame", ptr %16, i32 0, i32 1
  %20 = load i8, ptr %10, align 1, !tbaa !29, !range !23, !noundef !24
  %21 = trunc i8 %20 to i1
  %22 = zext i1 %21 to i8
  store i8 %22, ptr %19, align 4, !tbaa !91
  %23 = getelementptr inbounds nuw %"struct.net::QuicStreamFrame", ptr %16, i32 0, i32 2
  %24 = load i16, ptr %13, align 2, !tbaa !80
  store i16 %24, ptr %23, align 2, !tbaa !92
  %25 = getelementptr inbounds nuw %"struct.net::QuicStreamFrame", ptr %16, i32 0, i32 3
  %26 = load ptr, ptr %12, align 8, !tbaa !66
  store ptr %26, ptr %25, align 8, !tbaa !93
  %27 = getelementptr inbounds nuw %"struct.net::QuicStreamFrame", ptr %16, i32 0, i32 4
  %28 = load i64, ptr %11, align 8, !tbaa !71
  store i64 %28, ptr %27, align 8, !tbaa !94
  %29 = getelementptr inbounds nuw %"struct.net::QuicStreamFrame", ptr %16, i32 0, i32 5
  call void @_ZNSt10unique_ptrIA_cN3net19StreamBufferDeleterEEC2EOS3_(ptr noundef nonnull align 8 dereferenceable(16) %29, ptr noundef nonnull align 8 dereferenceable(16) %6) #18
  %30 = getelementptr inbounds nuw %"struct.net::QuicStreamFrame", ptr %16, i32 0, i32 5
  %31 = call noundef zeroext i1 @_ZStneIA_cN3net19StreamBufferDeleterEEbRKSt10unique_ptrIT_T0_EDn(ptr noundef nonnull align 8 dereferenceable(16) %30, ptr null) #18
  br i1 %31, label %32, label %36

32:                                               ; preds = %7
  %33 = getelementptr inbounds nuw %"struct.net::QuicStreamFrame", ptr %16, i32 0, i32 5
  %34 = call noundef ptr @_ZNKSt10unique_ptrIA_cN3net19StreamBufferDeleterEE3getEv(ptr noundef nonnull align 8 dereferenceable(16) %33) #18
  %35 = getelementptr inbounds nuw %"struct.net::QuicStreamFrame", ptr %16, i32 0, i32 3
  store ptr %34, ptr %35, align 8, !tbaa !93
  br label %36

36:                                               ; preds = %32, %7
  ret void
}