; Function Attrs: mustprogress nofree norecurse nosync nounwind willreturn memory(argmem: readwrite) uwtable
define void @_ZN3net15QuicStreamFrameC2EjbmPKctSt10unique_ptrIA_cNS_19StreamBufferDeleterEE(ptr noundef nonnull align 8 captures(none) dereferenceable(40) initializes((0, 5), (6, 40)) %0, i32 noundef %1, i1 noundef zeroext %2, i64 noundef %3, ptr noundef %4, i16 noundef zeroext %5, ptr noundef captures(none) %6) unnamed_addr #10 align 2 {
  %8 = zext i1 %2 to i8
  store i32 %1, ptr %0, align 8, !tbaa !45
  %9 = getelementptr inbounds nuw i8, ptr %0, i64 4
  store i8 %8, ptr %9, align 4, !tbaa !56
  %10 = getelementptr inbounds nuw i8, ptr %0, i64 6
  store i16 %5, ptr %10, align 2, !tbaa !57
  %11 = getelementptr inbounds nuw i8, ptr %0, i64 8
  store ptr %4, ptr %11, align 8, !tbaa !58
  %12 = getelementptr inbounds nuw i8, ptr %0, i64 16
  store i64 %3, ptr %12, align 8, !tbaa !59
  %13 = getelementptr inbounds nuw i8, ptr %0, i64 24
  %14 = load i64, ptr %6, align 8, !tbaa !41
  store i64 %14, ptr %13, align 8, !tbaa !41
  %15 = getelementptr inbounds nuw i8, ptr %0, i64 32
  %16 = getelementptr inbounds nuw i8, ptr %6, i64 8
  %17 = load i64, ptr %16, align 8, !tbaa !60
  store i64 %17, ptr %15, align 8, !tbaa !60
  store ptr null, ptr %16, align 8, !tbaa !60
  %18 = load ptr, ptr %15, align 8, !tbaa !60
  %.not = icmp eq ptr %18, null
  br i1 %.not, label %20, label %19

19:                                               ; preds = %7
  store ptr %18, ptr %11, align 8, !tbaa !58
  br label %20

20:                                               ; preds = %19, %7
  ret void
}